; Function Attrs: nounwind uwtable
define internal fastcc range(i32 0, 2) i32 @kwsysProcessSetupOutputPipeNative(ptr noundef nonnull captures(none) %0, ptr noundef nonnull readonly captures(none) %1) unnamed_addr #4 {
  %3 = load i32, ptr %0, align 4, !tbaa !35
  %4 = icmp sgt i32 %3, 2
  br i1 %4, label %.preheader.i, label %kwsysProcessCleanupDescriptor.exit

.preheader.i:                                     ; preds = %2, %8
  %5 = load i32, ptr %0, align 4, !tbaa !35
  %6 = tail call i32 @close(i32 noundef %5) #25
  %7 = icmp slt i32 %6, 0
  br i1 %7, label %8, label %.critedge.i

8:                                                ; preds = %.preheader.i
  %9 = tail call ptr @__errno_location() #28
  %10 = load i32, ptr %9, align 4, !tbaa !35
  %11 = icmp eq i32 %10, 4
  br i1 %11, label %.preheader.i, label %.critedge.i, !llvm.loop !94

.critedge.i:                                      ; preds = %8, %.preheader.i
  store i32 -1, ptr %0, align 4, !tbaa !35
  br label %kwsysProcessCleanupDescriptor.exit

kwsysProcessCleanupDescriptor.exit:               ; preds = %2, %.critedge.i
  %12 = load i32, ptr %1, align 4, !tbaa !35
  %13 = tail call i32 (i32, i32, ...) @fcntl(i32 noundef %12, i32 noundef 2, i32 noundef 1) #25
  %14 = icmp slt i32 %13, 0
  br i1 %14, label %22, label %15

15:                                               ; preds = %kwsysProcessCleanupDescriptor.exit
  %16 = getelementptr inbounds nuw i8, ptr %1, i64 4
  %17 = load i32, ptr %16, align 4, !tbaa !35
  %18 = tail call i32 (i32, i32, ...) @fcntl(i32 noundef %17, i32 noundef 2, i32 noundef 1) #25
  %19 = icmp slt i32 %18, 0
  br i1 %19, label %22, label %20

20:                                               ; preds = %15
  %21 = load i32, ptr %16, align 4, !tbaa !35
  store i32 %21, ptr %0, align 4, !tbaa !35
  br label %22

22:                                               ; preds = %kwsysProcessCleanupDescriptor.exit, %15, %20
  %.0 = phi i32 [ 1, %20 ], [ 0, %15 ], [ 0, %kwsysProcessCleanupDescriptor.exit ]
  ret i32 %.0
}